; Function Attrs: mustprogress uwtable
define void @_ZN6icu_7522CompoundTransliterator4initERKNS_13UnicodeStringE15UTransDirectionaR10UErrorCode(ptr noundef nonnull align 8 dereferenceable(104) %this, ptr noundef nonnull align 8 dereferenceable(64) %id, i32 noundef %direction, i8 noundef signext %fixReverseID, ptr noundef nonnull align 4 dereferenceable(4) %status) local_unnamed_addr #1 align 2 personality ptr @__gxx_personality_v0 {
entry:
  %list = alloca %"class.icu_75::UVector", align 8
  %compoundFilter = alloca ptr, align 8
  %regenID = alloca %"class.icu_75::UnicodeString", align 8
  %0 = load i32, ptr %status, align 4
  %cmp.i = icmp slt i32 %0, 1
  br i1 %cmp.i, label %invoke.cont, label %cleanup.cont

invoke.cont:                                      ; preds = %entry
  call void @_ZN6icu_757UVectorC1ER10UErrorCode(ptr noundef nonnull align 8 dereferenceable(40) %list, ptr noundef nonnull align 4 dereferenceable(4) %status)
  store ptr null, ptr %compoundFilter, align 8
  store ptr getelementptr inbounds ({ [13 x ptr] }, ptr @_ZTVN6icu_7513UnicodeStringE, i64 0, i32 0, i64 2), ptr %regenID, align 8
  %fUnion2.i = getelementptr inbounds i8, ptr %regenID, i64 8
  store i16 2, ptr %fUnion2.i, align 8
  %call4 = invoke noundef signext i8 @_ZN6icu_7522TransliteratorIDParser15parseCompoundIDERKNS_13UnicodeStringEiRS1_RNS_7UVectorERPNS_10UnicodeSetE(ptr noundef nonnull align 8 dereferenceable(64) %id, i32 noundef %direction, ptr noundef nonnull align 8 dereferenceable(64) %regenID, ptr noundef nonnull align 8 dereferenceable(40) %list, ptr noundef nonnull align 8 dereferenceable(8) %compoundFilter)
          to label %invoke.cont3 unwind label %lpad2

invoke.cont3:                                     ; preds = %invoke.cont
  %tobool5.not = icmp eq i8 %call4, 0
  br i1 %tobool5.not, label %if.then6, label %if.end7

if.then6:                                         ; preds = %invoke.cont3
  store i32 65569, ptr %status, align 4
  %1 = load ptr, ptr %compoundFilter, align 8
  %isnull = icmp eq ptr %1, null
  br i1 %isnull, label %cleanup, label %delete.notnull

delete.notnull:                                   ; preds = %if.then6
  call void @_ZN6icu_7510UnicodeSetD1Ev(ptr noundef nonnull align 8 dereferenceable(200) %1) #13
  call void @_ZN6icu_757UMemorydlEPv(ptr noundef nonnull %1) #13
  br label %cleanup

lpad2:                                            ; preds = %if.then10, %invoke.cont8, %if.end7, %invoke.cont
  %2 = landingpad { ptr, i32 }
          cleanup
  call void @_ZN6icu_7513UnicodeStringD1Ev(ptr noundef nonnull align 8 dereferenceable(64) %regenID) #13
  call void @_ZN6icu_757UVectorD1Ev(ptr noundef nonnull align 8 dereferenceable(40) %list) #13
  resume { ptr, i32 } %2

if.end7:                                          ; preds = %invoke.cont3
  invoke void @_ZN6icu_7522TransliteratorIDParser15instantiateListERNS_7UVectorER10UErrorCode(ptr noundef nonnull align 8 dereferenceable(40) %list, ptr noundef nonnull align 4 dereferenceable(4) %status)
          to label %invoke.cont8 unwind label %lpad2

invoke.cont8:                                     ; preds = %if.end7
  invoke void @_ZN6icu_7522CompoundTransliterator4initERNS_7UVectorE15UTransDirectionaR10UErrorCode(ptr noundef nonnull align 8 dereferenceable(104) %this, ptr noundef nonnull align 8 dereferenceable(40) %list, i32 noundef %direction, i8 noundef signext %fixReverseID, ptr noundef nonnull align 4 dereferenceable(4) %status)
          to label %invoke.cont9 unwind label %lpad2

invoke.cont9:                                     ; preds = %invoke.cont8
  %3 = load ptr, ptr %compoundFilter, align 8
  %cmp.not = icmp eq ptr %3, null
  br i1 %cmp.not, label %cleanup, label %if.then10

if.then10:                                        ; preds = %invoke.cont9
  invoke void @_ZN6icu_7514Transliterator11adoptFilterEPNS_13UnicodeFilterE(ptr noundef nonnull align 8 dereferenceable(84) %this, ptr noundef nonnull %3)
          to label %cleanup unwind label %lpad2

cleanup:                                          ; preds = %invoke.cont9, %if.then10, %if.then6, %delete.notnull
  call void @_ZN6icu_7513UnicodeStringD1Ev(ptr noundef nonnull align 8 dereferenceable(64) %regenID) #13
  call void @_ZN6icu_757UVectorD1Ev(ptr noundef nonnull align 8 dereferenceable(40) %list) #13
  br label %cleanup.cont

cleanup.cont:                                     ; preds = %entry, %cleanup
  ret void
}